; ModuleID = '60/369.c'
source_filename = "60/369.c"
target datalayout = "e-m:e-p270:32:32-p271:32:32-p272:64:64-i64:64-f80:128-n8:16:32:64-S128"
target triple = "x86_64-pc-linux-gnu"

@.str = private unnamed_addr constant [3 x i8] c"%d\00", align 1
@.str.1 = private unnamed_addr constant [6 x i8] c"empty\00", align 1
@.str.2 = private unnamed_addr constant [7 x i8] c"%d %d\0A\00", align 1

; Function Attrs: noinline nounwind uwtable
define dso_local i32 @main() #0 {
  %1 = alloca i32, align 4
  %2 = alloca i32, align 4
  %3 = alloca i32, align 4
  %4 = alloca i32, align 4
  %5 = alloca i32, align 4
  %6 = alloca i32, align 4
  store i32 0, i32* %1, align 4
  %7 = call i32 (i8*, ...) @__isoc99_scanf(i8* getelementptr inbounds ([3 x i8], [3 x i8]* @.str, i64 0, i64 0), i32* %3)
  %8 = load i32, i32* %3, align 4
  %9 = icmp slt i32 %8, 5
  br i1 %9, label %10, label %12

10:                                               ; preds = %0
  %11 = call i32 (i8*, ...) @printf(i8* getelementptr inbounds ([6 x i8], [6 x i8]* @.str.1, i64 0, i64 0))
  br label %69

12:                                               ; preds = %0
  store i32 3, i32* %2, align 4
  br label %13

13:                                               ; preds = %65, %12
  %14 = load i32, i32* %2, align 4
  %15 = load i32, i32* %3, align 4
  %16 = sub nsw i32 %15, 2
  %17 = icmp sle i32 %14, %16
  br i1 %17, label %18, label %68

18:                                               ; preds = %13
  store i32 0, i32* %4, align 4
  store i32 2, i32* %6, align 4
  br label %19

19:                                               ; preds = %33, %18
  %20 = load i32, i32* %6, align 4
  %21 = sitofp i32 %20 to double
  %22 = load i32, i32* %2, align 4
  %23 = sitofp i32 %22 to double
  %24 = call double @sqrt(double %23) #3
  %25 = fcmp ole double %21, %24
  br i1 %25, label %26, label %36

26:                                               ; preds = %19
  %27 = load i32, i32* %2, align 4
  %28 = load i32, i32* %6, align 4
  %29 = srem i32 %27, %28
  %30 = icmp eq i32 %29, 0
  br i1 %30, label %31, label %32

31:                                               ; preds = %26
  store i32 1, i32* %4, align 4
  br label %32

32:                                               ; preds = %31, %26
  br label %33

33:                                               ; preds = %32
  %34 = load i32, i32* %6, align 4
  %35 = add nsw i32 %34, 1
  store i32 %35, i32* %6, align 4
  br label %19

36:                                               ; preds = %19
  store i32 2, i32* %6, align 4
  br label %37

37:                                               ; preds = %53, %36
  %38 = load i32, i32* %6, align 4
  %39 = sitofp i32 %38 to double
  %40 = load i32, i32* %2, align 4
  %41 = add nsw i32 %40, 2
  %42 = sitofp i32 %41 to double
  %43 = call double @sqrt(double %42) #3
  %44 = fcmp ole double %39, %43
  br i1 %44, label %45, label %56

45:                                               ; preds = %37
  %46 = load i32, i32* %2, align 4
  %47 = add nsw i32 %46, 2
  %48 = load i32, i32* %6, align 4
  %49 = srem i32 %47, %48
  %50 = icmp eq i32 %49, 0
  br i1 %50, label %51, label %52

51:                                               ; preds = %45
  store i32 1, i32* %4, align 4
  br label %52

52:                                               ; preds = %51, %45
  br label %53

53:                                               ; preds = %52
  %54 = load i32, i32* %6, align 4
  %55 = add nsw i32 %54, 1
  store i32 %55, i32* %6, align 4
  br label %37

56:                                               ; preds = %37
  %57 = load i32, i32* %4, align 4
  %58 = icmp eq i32 %57, 0
  br i1 %58, label %59, label %64

59:                                               ; preds = %56
  %60 = load i32, i32* %2, align 4
  %61 = load i32, i32* %2, align 4
  %62 = add nsw i32 %61, 2
  %63 = call i32 (i8*, ...) @printf(i8* getelementptr inbounds ([7 x i8], [7 x i8]* @.str.2, i64 0, i64 0), i32 %60, i32 %62)
  br label %64

64:                                               ; preds = %59, %56
  br label %65

65:                                               ; preds = %64
  %66 = load i32, i32* %2, align 4
  %67 = add nsw i32 %66, 1
  store i32 %67, i32* %2, align 4
  br label %13

68:                                               ; preds = %13
  br label %69

69:                                               ; preds = %68, %10
  ret i32 0
}

declare dso_local i32 @__isoc99_scanf(i8*, ...) #1

declare dso_local i32 @printf(i8*, ...) #1

; Function Attrs: nounwind
declare dso_local double @sqrt(double) #2


!llvm.module.flags = !{!0}
!llvm.ident = !{!1}

!0 = !{i32 1, !"wchar_size", i32 4}
!1 = !{!"clang version 10.0.0-4ubuntu1 "}
